target datalayout = "e-m:e-p270:32:32-p271:32:32-p272:64:64-i64:64-i128:128-f80:128-n8:16:32:64-S128"
target triple = "x86_64-pc-linux-gnu"

%struct.FSEv06_DTableHeader = type { i16, i16 }
%struct.FSEv06_decode_t = type { i16, i8, i8 }

; Function Attrs: nounwind uwtable
define i64 @FSEv06_buildDTable_rle(ptr noundef %0, i8 noundef zeroext %1) #0 {
  %3 = alloca ptr, align 8
  %4 = alloca i8, align 1
  %5 = alloca ptr, align 8
  %6 = alloca ptr, align 8
  %7 = alloca ptr, align 8
  %8 = alloca ptr, align 8
  store ptr %0, ptr %3, align 8, !tbaa !10
  store i8 %1, ptr %4, align 1, !tbaa !34
  call void @llvm.lifetime.start.p0(i64 8, ptr %5) #10
  %9 = load ptr, ptr %3, align 8, !tbaa !10
  store ptr %9, ptr %5, align 8, !tbaa !12
  call void @llvm.lifetime.start.p0(i64 8, ptr %6) #10
  %10 = load ptr, ptr %5, align 8, !tbaa !12
  store ptr %10, ptr %6, align 8, !tbaa !12
  call void @llvm.lifetime.start.p0(i64 8, ptr %7) #10
  %11 = load ptr, ptr %3, align 8, !tbaa !10
  %12 = getelementptr inbounds i32, ptr %11, i64 1
  store ptr %12, ptr %7, align 8, !tbaa !12
  call void @llvm.lifetime.start.p0(i64 8, ptr %8) #10
  %13 = load ptr, ptr %7, align 8, !tbaa !12
  store ptr %13, ptr %8, align 8, !tbaa !12
  %14 = load ptr, ptr %6, align 8, !tbaa !12
  %15 = getelementptr inbounds nuw %struct.FSEv06_DTableHeader, ptr %14, i32 0, i32 0
  store i16 0, ptr %15, align 2, !tbaa !25
  %16 = load ptr, ptr %6, align 8, !tbaa !12
  %17 = getelementptr inbounds nuw %struct.FSEv06_DTableHeader, ptr %16, i32 0, i32 1
  store i16 0, ptr %17, align 2, !tbaa !27
  %18 = load ptr, ptr %8, align 8, !tbaa !12
  %19 = getelementptr inbounds nuw %struct.FSEv06_decode_t, ptr %18, i32 0, i32 0
  store i16 0, ptr %19, align 2, !tbaa !36
  %20 = load i8, ptr %4, align 1, !tbaa !34
  %21 = load ptr, ptr %8, align 8, !tbaa !12
  %22 = getelementptr inbounds nuw %struct.FSEv06_decode_t, ptr %21, i32 0, i32 1
  store i8 %20, ptr %22, align 2, !tbaa !28
  %23 = load ptr, ptr %8, align 8, !tbaa !12
  %24 = getelementptr inbounds nuw %struct.FSEv06_decode_t, ptr %23, i32 0, i32 2
  store i8 0, ptr %24, align 1, !tbaa !35
  call void @llvm.lifetime.end.p0(i64 8, ptr %8) #10
  call void @llvm.lifetime.end.p0(i64 8, ptr %7) #10
  call void @llvm.lifetime.end.p0(i64 8, ptr %6) #10
  call void @llvm.lifetime.end.p0(i64 8, ptr %5) #10
  ret i64 0
}