; Function Attrs: mustprogress nofree norecurse nosync nounwind willreturn memory(argmem: write) uwtable
define noundef i64 @FSEv06_buildDTable_rle(ptr noundef writeonly captures(none) initializes((0, 8)) %0, i8 noundef zeroext %1) local_unnamed_addr #9 {
  %3 = getelementptr inbounds nuw i8, ptr %0, i64 4
  store i16 0, ptr %0, align 2, !tbaa !23
  %4 = getelementptr inbounds nuw i8, ptr %0, i64 2
  store i16 0, ptr %4, align 2, !tbaa !25
  store i16 0, ptr %3, align 2, !tbaa !21
  %5 = getelementptr inbounds nuw i8, ptr %0, i64 6
  store i8 %1, ptr %5, align 2, !tbaa !14
  %6 = getelementptr inbounds nuw i8, ptr %0, i64 7
  store i8 0, ptr %6, align 1, !tbaa !20
  ret i64 0
}